; Function Attrs: nounwind uwtable
define internal noundef i32 @_gradient_slider_enter_notify_event(ptr noundef %0, ptr readnone captures(none) %1) #0 {
  %3 = load atomic i64, ptr @_gradient_slider_get_type.static_g_define_type_id seq_cst, align 8
  %.not.i.i.i = icmp eq i64 %3, 0
  br i1 %.not.i.i.i, label %4, label %dtgtk_gradient_slider_get_type.exit.i

4:                                                ; preds = %2
  %5 = tail call i32 @g_once_init_enter(ptr noundef nonnull @_gradient_slider_get_type.static_g_define_type_id) #14
  %.not4.i.i.i = icmp eq i32 %5, 0
  br i1 %.not4.i.i.i, label %dtgtk_gradient_slider_get_type.exit.i, label %6

6:                                                ; preds = %4
  %7 = tail call fastcc i64 @_gradient_slider_get_type_once()
  tail call void @g_once_init_leave(ptr noundef nonnull @_gradient_slider_get_type.static_g_define_type_id, i64 noundef %7) #14
  br label %dtgtk_gradient_slider_get_type.exit.i

dtgtk_gradient_slider_get_type.exit.i:            ; preds = %6, %4, %2
  %8 = load i64, ptr @_gradient_slider_get_type.static_g_define_type_id, align 8, !tbaa !6
  %.not.i = icmp eq ptr %0, null
  br i1 %.not.i, label %DTGTK_IS_GRADIENT_SLIDER.exit.thread, label %9

9:                                                ; preds = %dtgtk_gradient_slider_get_type.exit.i
  %10 = load ptr, ptr %0, align 8, !tbaa !113
  %.not10.i = icmp eq ptr %10, null
  br i1 %.not10.i, label %DTGTK_IS_GRADIENT_SLIDER.exit, label %11

11:                                               ; preds = %9
  %12 = load i64, ptr %10, align 8, !tbaa !107
  %13 = icmp eq i64 %12, %8
  br i1 %13, label %DTGTK_IS_GRADIENT_SLIDER.exit.thread14, label %DTGTK_IS_GRADIENT_SLIDER.exit

DTGTK_IS_GRADIENT_SLIDER.exit:                    ; preds = %9, %11
  %14 = tail call i32 @g_type_check_instance_is_a(ptr noundef nonnull readonly %0, i64 noundef %8) #17
  %.not = icmp eq i32 %14, 0
  br i1 %.not, label %DTGTK_IS_GRADIENT_SLIDER.exit.thread, label %DTGTK_IS_GRADIENT_SLIDER.exit.thread14, !prof !114

DTGTK_IS_GRADIENT_SLIDER.exit.thread:             ; preds = %dtgtk_gradient_slider_get_type.exit.i, %DTGTK_IS_GRADIENT_SLIDER.exit
  tail call void @g_return_if_fail_warning(ptr noundef null, ptr noundef nonnull @__func__._gradient_slider_enter_notify_event, ptr noundef nonnull @.str.9) #14
  br label %23

DTGTK_IS_GRADIENT_SLIDER.exit.thread14:           ; preds = %11, %DTGTK_IS_GRADIENT_SLIDER.exit
  %15 = load atomic i64, ptr @_gradient_slider_get_type.static_g_define_type_id seq_cst, align 8
  %.not.i.i.i9 = icmp eq i64 %15, 0
  br i1 %.not.i.i.i9, label %16, label %DTGTK_GRADIENT_SLIDER.exit

16:                                               ; preds = %DTGTK_IS_GRADIENT_SLIDER.exit.thread14
  %17 = tail call i32 @g_once_init_enter(ptr noundef nonnull @_gradient_slider_get_type.static_g_define_type_id) #14
  %.not4.i.i.i11 = icmp eq i32 %17, 0
  br i1 %.not4.i.i.i11, label %DTGTK_GRADIENT_SLIDER.exit, label %18

18:                                               ; preds = %16
  %19 = tail call fastcc i64 @_gradient_slider_get_type_once()
  tail call void @g_once_init_leave(ptr noundef nonnull @_gradient_slider_get_type.static_g_define_type_id, i64 noundef %19) #14
  br label %DTGTK_GRADIENT_SLIDER.exit

DTGTK_GRADIENT_SLIDER.exit:                       ; preds = %DTGTK_IS_GRADIENT_SLIDER.exit.thread14, %16, %18
  %20 = load i64, ptr @_gradient_slider_get_type.static_g_define_type_id, align 8, !tbaa !6
  %21 = tail call ptr @g_type_check_instance_cast(ptr noundef nonnull %0, i64 noundef %20) #14
  tail call void @gtk_widget_set_state_flags(ptr noundef nonnull %0, i32 noundef 2, i32 noundef 1) #14
  %22 = getelementptr inbounds nuw i8, ptr %21, i64 328
  store i32 1, ptr %22, align 8, !tbaa !36
  tail call void @gtk_widget_queue_draw(ptr noundef nonnull %0) #14
  br label %23

23:                                               ; preds = %DTGTK_GRADIENT_SLIDER.exit, %DTGTK_IS_GRADIENT_SLIDER.exit.thread
  ret i32 0
}